; Function Attrs: mustprogress uwtable
define hidden void @_ZNK2lp10hnf_cutter4varsEv(ptr noalias sret(%class.svector) align 8 %agg.result, ptr nocapture noundef nonnull readonly align 8 dereferenceable(208) %this) local_unnamed_addr #3 align 2 personality ptr @__gxx_personality_v0 {
entry:
  %m_var_register = getelementptr inbounds i8, ptr %this, i64 136
  tail call void @llvm.experimental.noalias.scope.decl(metadata !16)
  store ptr null, ptr %agg.result, align 8, !alias.scope !16
  %0 = load ptr, ptr %m_var_register, align 8, !noalias !16
  %cmp.i.i.i = icmp eq ptr %0, null
  br i1 %cmp.i.i.i, label %_ZNK2lp12var_register4varsEv.exit, label %_ZNK6vectorIN2lp12ext_var_infoELb1EjE3endEv.exit.i

_ZNK6vectorIN2lp12ext_var_infoELb1EjE3endEv.exit.i: ; preds = %entry
  %arrayidx.i.i.i = getelementptr inbounds i8, ptr %0, i64 -4
  %1 = load i32, ptr %arrayidx.i.i.i, align 4, !noalias !16
  %2 = zext i32 %1 to i64
  %add.ptr.i.i = getelementptr inbounds %"class.lp::ext_var_info", ptr %0, i64 %2
  %cmp.not5.i = icmp eq i32 %1, 0
  br i1 %cmp.not5.i, label %_ZNK2lp12var_register4varsEv.exit, label %for.body.i

for.body.i:                                       ; preds = %_ZNK6vectorIN2lp12ext_var_infoELb1EjE3endEv.exit.i, %for.inc.i
  %__begin2.06.i = phi ptr [ %incdec.ptr.i, %for.inc.i ], [ %0, %_ZNK6vectorIN2lp12ext_var_infoELb1EjE3endEv.exit.i ]
  %3 = load i32, ptr %__begin2.06.i, align 8
  %4 = load ptr, ptr %agg.result, align 8, !alias.scope !16
  %cmp.i.i = icmp eq ptr %4, null
  br i1 %cmp.i.i, label %if.then.i.i, label %lor.lhs.false.i.i

lor.lhs.false.i.i:                                ; preds = %for.body.i
  %arrayidx.i.i = getelementptr inbounds i8, ptr %4, i64 -4
  %5 = load i32, ptr %arrayidx.i.i, align 4
  %arrayidx4.i.i = getelementptr inbounds i8, ptr %4, i64 -8
  %6 = load i32, ptr %arrayidx4.i.i, align 4
  %cmp5.i.i = icmp eq i32 %5, %6
  br i1 %cmp5.i.i, label %if.then.i.i, label %for.inc.i

if.then.i.i:                                      ; preds = %lor.lhs.false.i.i, %for.body.i
  invoke void @_ZN6vectorIjLb0EjE13expand_vectorEv(ptr noundef nonnull align 8 dereferenceable(8) %agg.result)
          to label %.noexc.i unwind label %lpad.i

.noexc.i:                                         ; preds = %if.then.i.i
  %.pre.i.i = load ptr, ptr %agg.result, align 8, !alias.scope !16
  %arrayidx8.phi.trans.insert.i.i = getelementptr inbounds i8, ptr %.pre.i.i, i64 -4
  %.pre1.i.i = load i32, ptr %arrayidx8.phi.trans.insert.i.i, align 4
  br label %for.inc.i

for.inc.i:                                        ; preds = %.noexc.i, %lor.lhs.false.i.i
  %7 = phi i32 [ %.pre1.i.i, %.noexc.i ], [ %5, %lor.lhs.false.i.i ]
  %8 = phi ptr [ %.pre.i.i, %.noexc.i ], [ %4, %lor.lhs.false.i.i ]
  %idx.ext.i.i = zext i32 %7 to i64
  %add.ptr.i4.i = getelementptr inbounds i32, ptr %8, i64 %idx.ext.i.i
  store i32 %3, ptr %add.ptr.i4.i, align 4
  %9 = load ptr, ptr %agg.result, align 8, !alias.scope !16
  %arrayidx10.i.i = getelementptr inbounds i8, ptr %9, i64 -4
  %10 = load i32, ptr %arrayidx10.i.i, align 4
  %inc.i.i = add i32 %10, 1
  store i32 %inc.i.i, ptr %arrayidx10.i.i, align 4
  %incdec.ptr.i = getelementptr inbounds i8, ptr %__begin2.06.i, i64 40
  %cmp.not.i = icmp eq ptr %incdec.ptr.i, %add.ptr.i.i
  br i1 %cmp.not.i, label %_ZNK2lp12var_register4varsEv.exit, label %for.body.i

lpad.i:                                           ; preds = %if.then.i.i
  %11 = landingpad { ptr, i32 }
          cleanup
  tail call void @_ZN7svectorIjjED2Ev(ptr noundef nonnull align 8 dereferenceable(8) %agg.result) #20
  resume { ptr, i32 } %11

_ZNK2lp12var_register4varsEv.exit:                ; preds = %for.inc.i, %entry, %_ZNK6vectorIN2lp12ext_var_infoELb1EjE3endEv.exit.i
  ret void
}